; ModuleID = 'source-C-CXX/41/376.cpp'
source_filename = "source-C-CXX/41/376.cpp"
target datalayout = "e-m:e-p270:32:32-p271:32:32-p272:64:64-i64:64-f80:128-n8:16:32:64-S128"
target triple = "x86_64-pc-linux-gnu"

%"class.std::ios_base::Init" = type { i8 }
%"class.std::basic_istream" = type { i32 (...)**, i64, %"class.std::basic_ios" }
%"class.std::basic_ios" = type { %"class.std::ios_base", %"class.std::basic_ostream"*, i8, i8, %"class.std::basic_streambuf"*, %"class.std::ctype"*, %"class.std::num_put"*, %"class.std::num_get"* }
%"class.std::ios_base" = type { i32 (...)**, i64, i64, i32, i32, i32, %"struct.std::ios_base::_Callback_list"*, %"struct.std::ios_base::_Words", [8 x %"struct.std::ios_base::_Words"], i32, %"struct.std::ios_base::_Words"*, %"class.std::locale" }
%"struct.std::ios_base::_Callback_list" = type { %"struct.std::ios_base::_Callback_list"*, void (i32, %"class.std::ios_base"*, i32)*, i32, i32 }
%"struct.std::ios_base::_Words" = type { i8*, i64 }
%"class.std::locale" = type { %"class.std::locale::_Impl"* }
%"class.std::locale::_Impl" = type { i32, %"class.std::locale::facet"**, i64, %"class.std::locale::facet"**, i8** }
%"class.std::locale::facet" = type <{ i32 (...)**, i32, [4 x i8] }>
%"class.std::basic_ostream" = type { i32 (...)**, %"class.std::basic_ios" }
%"class.std::basic_streambuf" = type { i32 (...)**, i8*, i8*, i8*, i8*, i8*, i8*, %"class.std::locale" }
%"class.std::ctype" = type <{ %"class.std::locale::facet.base", [4 x i8], %struct.__locale_struct*, i8, [7 x i8], i32*, i32*, i16*, i8, [256 x i8], [256 x i8], i8, [6 x i8] }>
%"class.std::locale::facet.base" = type <{ i32 (...)**, i32 }>
%struct.__locale_struct = type { [13 x %struct.__locale_data*], i16*, i32*, i32*, [13 x i8*] }
%struct.__locale_data = type opaque
%"class.std::num_put" = type { %"class.std::locale::facet.base", [4 x i8] }
%"class.std::num_get" = type { %"class.std::locale::facet.base", [4 x i8] }

@_ZStL8__ioinit = internal global %"class.std::ios_base::Init" zeroinitializer, align 1
@__dso_handle = external hidden global i8
@_ZSt3cin = external global %"class.std::basic_istream", align 8
@_ZSt4cout = external global %"class.std::basic_ostream", align 8
@.str = private unnamed_addr constant [2 x i8] c" \00", align 1
@llvm.global_ctors = appending global [1 x { i32, void ()*, i8* }] [{ i32, void ()*, i8* } { i32 65535, void ()* @_GLOBAL__sub_I_376.cpp, i8* null }]

declare void @_ZNSt8ios_base4InitC1Ev(%"class.std::ios_base::Init"* nonnull align 1 dereferenceable(1)) unnamed_addr #0

; Function Attrs: nounwind
declare void @_ZNSt8ios_base4InitD1Ev(%"class.std::ios_base::Init"* nonnull align 1 dereferenceable(1)) unnamed_addr #1

; Function Attrs: nofree nounwind
declare i32 @__cxa_atexit(void (i8*)*, i8*, i8*) local_unnamed_addr #2

; Function Attrs: mustprogress norecurse sspstrong uwtable
define dso_local i32 @main() local_unnamed_addr #3 {
  %1 = alloca [100000 x i32], align 16
  %2 = alloca i32, align 4
  %3 = alloca i32, align 4
  %4 = bitcast [100000 x i32]* %1 to i8*
  call void @llvm.lifetime.start.p0i8(i64 400000, i8* nonnull %4) #7
  %5 = bitcast i32* %2 to i8*
  call void @llvm.lifetime.start.p0i8(i64 4, i8* nonnull %5) #7
  %6 = bitcast i32* %3 to i8*
  call void @llvm.lifetime.start.p0i8(i64 4, i8* nonnull %6) #7
  %7 = call nonnull align 8 dereferenceable(16) %"class.std::basic_istream"* @_ZNSirsERi(%"class.std::basic_istream"* nonnull align 8 dereferenceable(16) @_ZSt3cin, i32* nonnull align 4 dereferenceable(4) %2)
  %8 = load i32, i32* %2, align 4, !tbaa !5
  %9 = icmp sgt i32 %8, 0
  br i1 %9, label %10, label %18

10:                                               ; preds = %0, %10
  %11 = phi i64 [ %14, %10 ], [ 0, %0 ]
  %12 = getelementptr inbounds [100000 x i32], [100000 x i32]* %1, i64 0, i64 %11
  %13 = call nonnull align 8 dereferenceable(16) %"class.std::basic_istream"* @_ZNSirsERi(%"class.std::basic_istream"* nonnull align 8 dereferenceable(16) @_ZSt3cin, i32* nonnull align 4 dereferenceable(4) %12)
  %14 = add nuw nsw i64 %11, 1
  %15 = load i32, i32* %2, align 4, !tbaa !5
  %16 = sext i32 %15 to i64
  %17 = icmp slt i64 %14, %16
  br i1 %17, label %10, label %18, !llvm.loop !9

18:                                               ; preds = %10, %0
  %19 = call nonnull align 8 dereferenceable(16) %"class.std::basic_istream"* @_ZNSirsERi(%"class.std::basic_istream"* nonnull align 8 dereferenceable(16) @_ZSt3cin, i32* nonnull align 4 dereferenceable(4) %3)
  %20 = load i32, i32* %2, align 4, !tbaa !5
  %21 = load i32, i32* %3, align 4
  %22 = icmp sgt i32 %20, 0
  br i1 %22, label %30, label %23

23:                                               ; preds = %120, %18
  %24 = phi i32 [ 0, %18 ], [ %122, %120 ]
  %25 = xor i32 %24, -1
  %26 = add i32 %20, %25
  %27 = icmp sgt i32 %26, 0
  br i1 %27, label %125, label %28

28:                                               ; preds = %23
  %29 = sext i32 %26 to i64
  br label %136

30:                                               ; preds = %18, %120
  %31 = phi i32 [ %122, %120 ], [ 0, %18 ]
  %32 = phi i32 [ %123, %120 ], [ 0, %18 ]
  %33 = sext i32 %32 to i64
  %34 = getelementptr inbounds [100000 x i32], [100000 x i32]* %1, i64 0, i64 %33
  %35 = load i32, i32* %34, align 4, !tbaa !5
  %36 = icmp eq i32 %35, %21
  br i1 %36, label %37, label %120

37:                                               ; preds = %30
  %38 = sub nsw i32 %20, %31
  %39 = icmp slt i32 %32, %38
  br i1 %39, label %40, label %114

40:                                               ; preds = %37
  %41 = sext i32 %38 to i64
  %42 = add nsw i64 %33, 1
  %43 = call i64 @llvm.smax.i64(i64 %41, i64 %42)
  %44 = sub i64 %43, %33
  %45 = icmp ult i64 %44, 8
  br i1 %45, label %105, label %46

46:                                               ; preds = %40
  %47 = and i64 %44, -8
  %48 = add i64 %47, %33
  %49 = add i64 %47, -8
  %50 = lshr exact i64 %49, 3
  %51 = add nuw nsw i64 %50, 1
  %52 = and i64 %51, 1
  %53 = icmp eq i64 %49, 0
  br i1 %53, label %87, label %54

54:                                               ; preds = %46
  %55 = and i64 %51, 4611686018427387902
  br label %56

56:                                               ; preds = %56, %54
  %57 = phi i64 [ 0, %54 ], [ %84, %56 ]
  %58 = phi i64 [ %55, %54 ], [ %85, %56 ]
  %59 = add i64 %57, %33
  %60 = add nsw i64 %59, 1
  %61 = getelementptr inbounds [100000 x i32], [100000 x i32]* %1, i64 0, i64 %60
  %62 = bitcast i32* %61 to <4 x i32>*
  %63 = load <4 x i32>, <4 x i32>* %62, align 4, !tbaa !5
  %64 = getelementptr inbounds i32, i32* %61, i64 4
  %65 = bitcast i32* %64 to <4 x i32>*
  %66 = load <4 x i32>, <4 x i32>* %65, align 4, !tbaa !5
  %67 = getelementptr inbounds [100000 x i32], [100000 x i32]* %1, i64 0, i64 %59
  %68 = bitcast i32* %67 to <4 x i32>*
  store <4 x i32> %63, <4 x i32>* %68, align 4, !tbaa !5
  %69 = getelementptr inbounds i32, i32* %67, i64 4
  %70 = bitcast i32* %69 to <4 x i32>*
  store <4 x i32> %66, <4 x i32>* %70, align 4, !tbaa !5
  %71 = or i64 %57, 8
  %72 = add i64 %71, %33
  %73 = add nsw i64 %72, 1
  %74 = getelementptr inbounds [100000 x i32], [100000 x i32]* %1, i64 0, i64 %73
  %75 = bitcast i32* %74 to <4 x i32>*
  %76 = load <4 x i32>, <4 x i32>* %75, align 4, !tbaa !5
  %77 = getelementptr inbounds i32, i32* %74, i64 4
  %78 = bitcast i32* %77 to <4 x i32>*
  %79 = load <4 x i32>, <4 x i32>* %78, align 4, !tbaa !5
  %80 = getelementptr inbounds [100000 x i32], [100000 x i32]* %1, i64 0, i64 %72
  %81 = bitcast i32* %80 to <4 x i32>*
  store <4 x i32> %76, <4 x i32>* %81, align 4, !tbaa !5
  %82 = getelementptr inbounds i32, i32* %80, i64 4
  %83 = bitcast i32* %82 to <4 x i32>*
  store <4 x i32> %79, <4 x i32>* %83, align 4, !tbaa !5
  %84 = add nuw i64 %57, 16
  %85 = add i64 %58, -2
  %86 = icmp eq i64 %85, 0
  br i1 %86, label %87, label %56, !llvm.loop !11

87:                                               ; preds = %56, %46
  %88 = phi i64 [ 0, %46 ], [ %84, %56 ]
  %89 = icmp eq i64 %52, 0
  br i1 %89, label %103, label %90

90:                                               ; preds = %87
  %91 = add i64 %88, %33
  %92 = add nsw i64 %91, 1
  %93 = getelementptr inbounds [100000 x i32], [100000 x i32]* %1, i64 0, i64 %92
  %94 = bitcast i32* %93 to <4 x i32>*
  %95 = load <4 x i32>, <4 x i32>* %94, align 4, !tbaa !5
  %96 = getelementptr inbounds i32, i32* %93, i64 4
  %97 = bitcast i32* %96 to <4 x i32>*
  %98 = load <4 x i32>, <4 x i32>* %97, align 4, !tbaa !5
  %99 = getelementptr inbounds [100000 x i32], [100000 x i32]* %1, i64 0, i64 %91
  %100 = bitcast i32* %99 to <4 x i32>*
  store <4 x i32> %95, <4 x i32>* %100, align 4, !tbaa !5
  %101 = getelementptr inbounds i32, i32* %99, i64 4
  %102 = bitcast i32* %101 to <4 x i32>*
  store <4 x i32> %98, <4 x i32>* %102, align 4, !tbaa !5
  br label %103

103:                                              ; preds = %87, %90
  %104 = icmp eq i64 %44, %47
  br i1 %104, label %114, label %105

105:                                              ; preds = %40, %103
  %106 = phi i64 [ %33, %40 ], [ %48, %103 ]
  br label %107

107:                                              ; preds = %105, %107
  %108 = phi i64 [ %109, %107 ], [ %106, %105 ]
  %109 = add nsw i64 %108, 1
  %110 = getelementptr inbounds [100000 x i32], [100000 x i32]* %1, i64 0, i64 %109
  %111 = load i32, i32* %110, align 4, !tbaa !5
  %112 = getelementptr inbounds [100000 x i32], [100000 x i32]* %1, i64 0, i64 %108
  store i32 %111, i32* %112, align 4, !tbaa !5
  %113 = icmp slt i64 %109, %41
  br i1 %113, label %107, label %114, !llvm.loop !13

114:                                              ; preds = %107, %103, %37
  %115 = add nsw i32 %38, -1
  %116 = sext i32 %115 to i64
  %117 = getelementptr inbounds [100000 x i32], [100000 x i32]* %1, i64 0, i64 %116
  store i32 0, i32* %117, align 4, !tbaa !5
  %118 = add nsw i32 %31, 1
  %119 = add nsw i32 %32, -1
  br label %120

120:                                              ; preds = %114, %30
  %121 = phi i32 [ %119, %114 ], [ %32, %30 ]
  %122 = phi i32 [ %118, %114 ], [ %31, %30 ]
  %123 = add nsw i32 %121, 1
  %124 = icmp slt i32 %123, %20
  br i1 %124, label %30, label %23, !llvm.loop !15

125:                                              ; preds = %23, %125
  %126 = phi i64 [ %131, %125 ], [ 0, %23 ]
  %127 = getelementptr inbounds [100000 x i32], [100000 x i32]* %1, i64 0, i64 %126
  %128 = load i32, i32* %127, align 4, !tbaa !5
  %129 = call nonnull align 8 dereferenceable(8) %"class.std::basic_ostream"* @_ZNSolsEi(%"class.std::basic_ostream"* nonnull align 8 dereferenceable(8) @_ZSt4cout, i32 %128)
  %130 = call nonnull align 8 dereferenceable(8) %"class.std::basic_ostream"* @_ZSt16__ostream_insertIcSt11char_traitsIcEERSt13basic_ostreamIT_T0_ES6_PKS3_l(%"class.std::basic_ostream"* nonnull align 8 dereferenceable(8) %129, i8* nonnull getelementptr inbounds ([2 x i8], [2 x i8]* @.str, i64 0, i64 0), i64 1)
  %131 = add nuw nsw i64 %126, 1
  %132 = load i32, i32* %2, align 4, !tbaa !5
  %133 = add i32 %132, %25
  %134 = sext i32 %133 to i64
  %135 = icmp slt i64 %131, %134
  br i1 %135, label %125, label %136, !llvm.loop !16

136:                                              ; preds = %125, %28
  %137 = phi i64 [ %29, %28 ], [ %134, %125 ]
  %138 = getelementptr inbounds [100000 x i32], [100000 x i32]* %1, i64 0, i64 %137
  %139 = load i32, i32* %138, align 4, !tbaa !5
  %140 = call nonnull align 8 dereferenceable(8) %"class.std::basic_ostream"* @_ZNSolsEi(%"class.std::basic_ostream"* nonnull align 8 dereferenceable(8) @_ZSt4cout, i32 %139)
  call void @llvm.lifetime.end.p0i8(i64 4, i8* nonnull %6) #7
  call void @llvm.lifetime.end.p0i8(i64 4, i8* nonnull %5) #7
  call void @llvm.lifetime.end.p0i8(i64 400000, i8* nonnull %4) #7
  ret i32 0
}

; Function Attrs: argmemonly mustprogress nofree nosync nounwind willreturn
declare void @llvm.lifetime.start.p0i8(i64 immarg, i8* nocapture) #4

declare nonnull align 8 dereferenceable(16) %"class.std::basic_istream"* @_ZNSirsERi(%"class.std::basic_istream"* nonnull align 8 dereferenceable(16), i32* nonnull align 4 dereferenceable(4)) local_unnamed_addr #0

declare nonnull align 8 dereferenceable(8) %"class.std::basic_ostream"* @_ZNSolsEi(%"class.std::basic_ostream"* nonnull align 8 dereferenceable(8), i32) local_unnamed_addr #0

; Function Attrs: argmemonly mustprogress nofree nosync nounwind willreturn
declare void @llvm.lifetime.end.p0i8(i64 immarg, i8* nocapture) #4

declare nonnull align 8 dereferenceable(8) %"class.std::basic_ostream"* @_ZSt16__ostream_insertIcSt11char_traitsIcEERSt13basic_ostreamIT_T0_ES6_PKS3_l(%"class.std::basic_ostream"* nonnull align 8 dereferenceable(8), i8*, i64) local_unnamed_addr #0

; Function Attrs: sspstrong uwtable
define internal void @_GLOBAL__sub_I_376.cpp() #5 section ".text.startup" {
  tail call void @_ZNSt8ios_base4InitC1Ev(%"class.std::ios_base::Init"* nonnull align 1 dereferenceable(1) @_ZStL8__ioinit)
  %1 = tail call i32 @__cxa_atexit(void (i8*)* bitcast (void (%"class.std::ios_base::Init"*)* @_ZNSt8ios_base4InitD1Ev to void (i8*)*), i8* getelementptr inbounds (%"class.std::ios_base::Init", %"class.std::ios_base::Init"* @_ZStL8__ioinit, i64 0, i32 0), i8* nonnull @__dso_handle) #7
  ret void
}

; Function Attrs: nofree nosync nounwind readnone speculatable willreturn
declare i64 @llvm.smax.i64(i64, i64) #6


!llvm.module.flags = !{!0, !1, !2, !3}
!llvm.ident = !{!4}

!0 = !{i32 1, !"wchar_size", i32 4}
!1 = !{i32 7, !"PIC Level", i32 2}
!2 = !{i32 7, !"PIE Level", i32 2}
!3 = !{i32 7, !"uwtable", i32 1}
!4 = !{!"clang version 13.0.0"}
!5 = !{!6, !6, i64 0}
!6 = !{!"int", !7, i64 0}
!7 = !{!"omnipotent char", !8, i64 0}
!8 = !{!"Simple C++ TBAA"}
!9 = distinct !{!9, !10}
!10 = !{!"llvm.loop.mustprogress"}
!11 = distinct !{!11, !10, !12}
!12 = !{!"llvm.loop.isvectorized", i32 1}
!13 = distinct !{!13, !10, !14, !12}
!14 = !{!"llvm.loop.unroll.runtime.disable"}
!15 = distinct !{!15, !10}
!16 = distinct !{!16, !10}
